target datalayout = "e-m:e-p270:32:32-p271:32:32-p272:64:64-i64:64-i128:128-f80:128-n8:16:32:64-S128"
target triple = "x86_64-pc-linux-gnu"

%struct.object_st = type { i32, double, ptr, ptr, i64, [256 x i8], i64, ptr, i64 }

@.str.3 = private unnamed_addr constant [30 x i8] c"../openssl/test/params_test.c\00", align 1
@.str.9 = private unnamed_addr constant [3 x i8] c"p1\00", align 1
@.str.10 = private unnamed_addr constant [3 x i8] c"p2\00", align 1
@.str.11 = private unnamed_addr constant [3 x i8] c"p3\00", align 1
@.str.13 = private unnamed_addr constant [3 x i8] c"p4\00", align 1
@.str.15 = private unnamed_addr constant [3 x i8] c"p5\00", align 1
@.str.18 = private unnamed_addr constant [3 x i8] c"p6\00", align 1
@.str.23 = private unnamed_addr constant [32 x i8] c"OSSL_PARAM_get_int(p, &obj->p1)\00", align 1
@.str.24 = private unnamed_addr constant [35 x i8] c"OSSL_PARAM_get_double(p, &obj->p2)\00", align 1
@.str.25 = private unnamed_addr constant [31 x i8] c"OSSL_PARAM_get_BN(p, &obj->p3)\00", align 1
@.str.26 = private unnamed_addr constant [43 x i8] c"OSSL_PARAM_get_utf8_string(p, &obj->p4, 0)\00", align 1
@.str.27 = private unnamed_addr constant [56 x i8] c"OSSL_PARAM_get_utf8_string(p, &p5_ptr, sizeof(obj->p5))\00", align 1
@.str.28 = private unnamed_addr constant [37 x i8] c"OSSL_PARAM_get_utf8_ptr(p, &obj->p6)\00", align 1

; Function Attrs: nounwind uwtable
define internal i32 @api_set_params(ptr noundef %0, ptr noundef %1) #0 {
  %3 = alloca i32, align 4
  %4 = alloca ptr, align 8
  %5 = alloca ptr, align 8
  %6 = alloca ptr, align 8
  %7 = alloca ptr, align 8
  %8 = alloca i32, align 4
  %9 = alloca ptr, align 8
  store ptr %0, ptr %4, align 8, !tbaa !24
  store ptr %1, ptr %5, align 8, !tbaa !20
  call void @llvm.lifetime.start.p0(i64 8, ptr %6) #7
  %10 = load ptr, ptr %4, align 8, !tbaa !24
  store ptr %10, ptr %6, align 8, !tbaa !35
  call void @llvm.lifetime.start.p0(i64 8, ptr %7) #7
  store ptr null, ptr %7, align 8, !tbaa !20
  %11 = load ptr, ptr %5, align 8, !tbaa !20
  %12 = call ptr @OSSL_PARAM_locate_const(ptr noundef %11, ptr noundef @.str.9)
  store ptr %12, ptr %7, align 8, !tbaa !20
  %13 = icmp ne ptr %12, null
  br i1 %13, label %14, label %24

14:                                               ; preds = %2
  %15 = load ptr, ptr %7, align 8, !tbaa !20
  %16 = load ptr, ptr %6, align 8, !tbaa !35
  %17 = getelementptr inbounds nuw %struct.object_st, ptr %16, i32 0, i32 0
  %18 = call i32 @OSSL_PARAM_get_int(ptr noundef %15, ptr noundef %17)
  %19 = icmp ne i32 %18, 0
  %20 = zext i1 %19 to i32
  %21 = call i32 @test_true(ptr noundef @.str.3, i32 noundef 215, ptr noundef @.str.23, i32 noundef %20)
  %22 = icmp ne i32 %21, 0
  br i1 %22, label %24, label %23

23:                                               ; preds = %14
  store i32 0, ptr %3, align 4
  store i32 1, ptr %8, align 4
  br label %119

24:                                               ; preds = %14, %2
  %25 = load ptr, ptr %5, align 8, !tbaa !20
  %26 = call ptr @OSSL_PARAM_locate_const(ptr noundef %25, ptr noundef @.str.10)
  store ptr %26, ptr %7, align 8, !tbaa !20
  %27 = icmp ne ptr %26, null
  br i1 %27, label %28, label %38

28:                                               ; preds = %24
  %29 = load ptr, ptr %7, align 8, !tbaa !20
  %30 = load ptr, ptr %6, align 8, !tbaa !35
  %31 = getelementptr inbounds nuw %struct.object_st, ptr %30, i32 0, i32 1
  %32 = call i32 @OSSL_PARAM_get_double(ptr noundef %29, ptr noundef %31)
  %33 = icmp ne i32 %32, 0
  %34 = zext i1 %33 to i32
  %35 = call i32 @test_true(ptr noundef @.str.3, i32 noundef 218, ptr noundef @.str.24, i32 noundef %34)
  %36 = icmp ne i32 %35, 0
  br i1 %36, label %38, label %37

37:                                               ; preds = %28
  store i32 0, ptr %3, align 4
  store i32 1, ptr %8, align 4
  br label %119

38:                                               ; preds = %28, %24
  %39 = load ptr, ptr %5, align 8, !tbaa !20
  %40 = call ptr @OSSL_PARAM_locate_const(ptr noundef %39, ptr noundef @.str.11)
  store ptr %40, ptr %7, align 8, !tbaa !20
  %41 = icmp ne ptr %40, null
  br i1 %41, label %42, label %52

42:                                               ; preds = %38
  %43 = load ptr, ptr %7, align 8, !tbaa !20
  %44 = load ptr, ptr %6, align 8, !tbaa !35
  %45 = getelementptr inbounds nuw %struct.object_st, ptr %44, i32 0, i32 2
  %46 = call i32 @OSSL_PARAM_get_BN(ptr noundef %43, ptr noundef %45)
  %47 = icmp ne i32 %46, 0
  %48 = zext i1 %47 to i32
  %49 = call i32 @test_true(ptr noundef @.str.3, i32 noundef 221, ptr noundef @.str.25, i32 noundef %48)
  %50 = icmp ne i32 %49, 0
  br i1 %50, label %52, label %51

51:                                               ; preds = %42
  store i32 0, ptr %3, align 4
  store i32 1, ptr %8, align 4
  br label %119

52:                                               ; preds = %42, %38
  %53 = load ptr, ptr %5, align 8, !tbaa !20
  %54 = call ptr @OSSL_PARAM_locate_const(ptr noundef %53, ptr noundef @.str.13)
  store ptr %54, ptr %7, align 8, !tbaa !20
  %55 = icmp ne ptr %54, null
  br i1 %55, label %56, label %72

56:                                               ; preds = %52
  %57 = load ptr, ptr %6, align 8, !tbaa !35
  %58 = getelementptr inbounds nuw %struct.object_st, ptr %57, i32 0, i32 3
  %59 = load ptr, ptr %58, align 8, !tbaa !41
  call void @CRYPTO_free(ptr noundef %59, ptr noundef @.str.3, i32 noundef 224)
  %60 = load ptr, ptr %6, align 8, !tbaa !35
  %61 = getelementptr inbounds nuw %struct.object_st, ptr %60, i32 0, i32 3
  store ptr null, ptr %61, align 8, !tbaa !41
  %62 = load ptr, ptr %7, align 8, !tbaa !20
  %63 = load ptr, ptr %6, align 8, !tbaa !35
  %64 = getelementptr inbounds nuw %struct.object_st, ptr %63, i32 0, i32 3
  %65 = call i32 @OSSL_PARAM_get_utf8_string(ptr noundef %62, ptr noundef %64, i64 noundef 0)
  %66 = icmp ne i32 %65, 0
  %67 = zext i1 %66 to i32
  %68 = call i32 @test_true(ptr noundef @.str.3, i32 noundef 227, ptr noundef @.str.26, i32 noundef %67)
  %69 = icmp ne i32 %68, 0
  br i1 %69, label %71, label %70

70:                                               ; preds = %56
  store i32 0, ptr %3, align 4
  store i32 1, ptr %8, align 4
  br label %119

71:                                               ; preds = %56
  br label %72

72:                                               ; preds = %71, %52
  %73 = load ptr, ptr %5, align 8, !tbaa !20
  %74 = call ptr @OSSL_PARAM_locate_const(ptr noundef %73, ptr noundef @.str.15)
  store ptr %74, ptr %7, align 8, !tbaa !20
  %75 = icmp ne ptr %74, null
  br i1 %75, label %76, label %97

76:                                               ; preds = %72
  call void @llvm.lifetime.start.p0(i64 8, ptr %9) #7
  %77 = load ptr, ptr %6, align 8, !tbaa !35
  %78 = getelementptr inbounds nuw %struct.object_st, ptr %77, i32 0, i32 5
  %79 = getelementptr inbounds [256 x i8], ptr %78, i64 0, i64 0
  store ptr %79, ptr %9, align 8, !tbaa !32
  %80 = load ptr, ptr %7, align 8, !tbaa !20
  %81 = call i32 @OSSL_PARAM_get_utf8_string(ptr noundef %80, ptr noundef %9, i64 noundef 256)
  %82 = icmp ne i32 %81, 0
  %83 = zext i1 %82 to i32
  %84 = call i32 @test_true(ptr noundef @.str.3, i32 noundef 232, ptr noundef @.str.27, i32 noundef %83)
  %85 = icmp ne i32 %84, 0
  br i1 %85, label %87, label %86

86:                                               ; preds = %76
  store i32 0, ptr %3, align 4
  store i32 1, ptr %8, align 4
  br label %94

87:                                               ; preds = %76
  %88 = load ptr, ptr %6, align 8, !tbaa !35
  %89 = getelementptr inbounds nuw %struct.object_st, ptr %88, i32 0, i32 5
  %90 = getelementptr inbounds [256 x i8], ptr %89, i64 0, i64 0
  %91 = call i64 @strlen(ptr noundef %90) #8
  %92 = load ptr, ptr %6, align 8, !tbaa !35
  %93 = getelementptr inbounds nuw %struct.object_st, ptr %92, i32 0, i32 6
  store i64 %91, ptr %93, align 8, !tbaa !48
  store i32 0, ptr %8, align 4
  br label %94

94:                                               ; preds = %87, %86
  call void @llvm.lifetime.end.p0(i64 8, ptr %9) #7
  %95 = load i32, ptr %8, align 4
  switch i32 %95, label %119 [
    i32 0, label %96
  ]

96:                                               ; preds = %94
  br label %97

97:                                               ; preds = %96, %72
  %98 = load ptr, ptr %5, align 8, !tbaa !20
  %99 = call ptr @OSSL_PARAM_locate_const(ptr noundef %98, ptr noundef @.str.18)
  store ptr %99, ptr %7, align 8, !tbaa !20
  %100 = icmp ne ptr %99, null
  br i1 %100, label %101, label %118

101:                                              ; preds = %97
  %102 = load ptr, ptr %7, align 8, !tbaa !20
  %103 = load ptr, ptr %6, align 8, !tbaa !35
  %104 = getelementptr inbounds nuw %struct.object_st, ptr %103, i32 0, i32 7
  %105 = call i32 @OSSL_PARAM_get_utf8_ptr(ptr noundef %102, ptr noundef %104)
  %106 = icmp ne i32 %105, 0
  %107 = zext i1 %106 to i32
  %108 = call i32 @test_true(ptr noundef @.str.3, i32 noundef 237, ptr noundef @.str.28, i32 noundef %107)
  %109 = icmp ne i32 %108, 0
  br i1 %109, label %111, label %110

110:                                              ; preds = %101
  store i32 0, ptr %3, align 4
  store i32 1, ptr %8, align 4
  br label %119

111:                                              ; preds = %101
  %112 = load ptr, ptr %6, align 8, !tbaa !35
  %113 = getelementptr inbounds nuw %struct.object_st, ptr %112, i32 0, i32 7
  %114 = load ptr, ptr %113, align 8, !tbaa !42
  %115 = call i64 @strlen(ptr noundef %114) #8
  %116 = load ptr, ptr %6, align 8, !tbaa !35
  %117 = getelementptr inbounds nuw %struct.object_st, ptr %116, i32 0, i32 8
  store i64 %115, ptr %117, align 8, !tbaa !49
  br label %118

118:                                              ; preds = %111, %97
  store i32 1, ptr %3, align 4
  store i32 1, ptr %8, align 4
  br label %119

119:                                              ; preds = %118, %110, %94, %70, %51, %37, %23
  call void @llvm.lifetime.end.p0(i64 8, ptr %7) #7
  call void @llvm.lifetime.end.p0(i64 8, ptr %6) #7
  %120 = load i32, ptr %3, align 4
  ret i32 %120
}