; Function Attrs: nounwind uwtable
define internal range(i32 0, 2) i32 @api_set_params(ptr noundef %0, ptr noundef %1) #0 {
  %3 = alloca ptr, align 8
  %4 = tail call ptr @OSSL_PARAM_locate_const(ptr noundef %1, ptr noundef nonnull @.str.9) #7
  %.not = icmp eq ptr %4, null
  br i1 %.not, label %10, label %5

5:                                                ; preds = %2
  %6 = tail call i32 @OSSL_PARAM_get_int(ptr noundef nonnull %4, ptr noundef %0) #7
  %7 = icmp ne i32 %6, 0
  %8 = zext i1 %7 to i32
  %9 = tail call i32 @test_true(ptr noundef nonnull @.str.3, i32 noundef 215, ptr noundef nonnull @.str.23, i32 noundef %8) #7
  %.not33 = icmp eq i32 %9, 0
  br i1 %.not33, label %58, label %10

10:                                               ; preds = %5, %2
  %11 = tail call ptr @OSSL_PARAM_locate_const(ptr noundef %1, ptr noundef nonnull @.str.10) #7
  %.not34 = icmp eq ptr %11, null
  br i1 %.not34, label %18, label %12

12:                                               ; preds = %10
  %13 = getelementptr inbounds nuw i8, ptr %0, i64 8
  %14 = tail call i32 @OSSL_PARAM_get_double(ptr noundef nonnull %11, ptr noundef nonnull %13) #7
  %15 = icmp ne i32 %14, 0
  %16 = zext i1 %15 to i32
  %17 = tail call i32 @test_true(ptr noundef nonnull @.str.3, i32 noundef 218, ptr noundef nonnull @.str.24, i32 noundef %16) #7
  %.not35 = icmp eq i32 %17, 0
  br i1 %.not35, label %58, label %18

18:                                               ; preds = %12, %10
  %19 = tail call ptr @OSSL_PARAM_locate_const(ptr noundef %1, ptr noundef nonnull @.str.11) #7
  %.not36 = icmp eq ptr %19, null
  br i1 %.not36, label %26, label %20

20:                                               ; preds = %18
  %21 = getelementptr inbounds nuw i8, ptr %0, i64 16
  %22 = tail call i32 @OSSL_PARAM_get_BN(ptr noundef nonnull %19, ptr noundef nonnull %21) #7
  %23 = icmp ne i32 %22, 0
  %24 = zext i1 %23 to i32
  %25 = tail call i32 @test_true(ptr noundef nonnull @.str.3, i32 noundef 221, ptr noundef nonnull @.str.25, i32 noundef %24) #7
  %.not37 = icmp eq i32 %25, 0
  br i1 %.not37, label %58, label %26

26:                                               ; preds = %20, %18
  %27 = tail call ptr @OSSL_PARAM_locate_const(ptr noundef %1, ptr noundef nonnull @.str.13) #7
  %.not38 = icmp eq ptr %27, null
  br i1 %.not38, label %35, label %28

28:                                               ; preds = %26
  %29 = getelementptr inbounds nuw i8, ptr %0, i64 24
  %30 = load ptr, ptr %29, align 8, !tbaa !33
  tail call void @CRYPTO_free(ptr noundef %30, ptr noundef nonnull @.str.3, i32 noundef 224) #7
  store ptr null, ptr %29, align 8, !tbaa !33
  %31 = tail call i32 @OSSL_PARAM_get_utf8_string(ptr noundef nonnull %27, ptr noundef nonnull %29, i64 noundef 0) #7
  %32 = icmp ne i32 %31, 0
  %33 = zext i1 %32 to i32
  %34 = tail call i32 @test_true(ptr noundef nonnull @.str.3, i32 noundef 227, ptr noundef nonnull @.str.26, i32 noundef %33) #7
  %.not39 = icmp eq i32 %34, 0
  br i1 %.not39, label %58, label %35

35:                                               ; preds = %28, %26
  %36 = tail call ptr @OSSL_PARAM_locate_const(ptr noundef %1, ptr noundef nonnull @.str.15) #7
  %.not40 = icmp eq ptr %36, null
  br i1 %.not40, label %46, label %37

37:                                               ; preds = %35
  call void @llvm.lifetime.start.p0(i64 8, ptr nonnull %3) #7
  %38 = getelementptr inbounds nuw i8, ptr %0, i64 40
  store ptr %38, ptr %3, align 8, !tbaa !24
  %39 = call i32 @OSSL_PARAM_get_utf8_string(ptr noundef nonnull %36, ptr noundef nonnull %3, i64 noundef 256) #7
  %40 = icmp ne i32 %39, 0
  %41 = zext i1 %40 to i32
  %42 = call i32 @test_true(ptr noundef nonnull @.str.3, i32 noundef 232, ptr noundef nonnull @.str.27, i32 noundef %41) #7
  %.not41.not = icmp eq i32 %42, 0
  br i1 %.not41.not, label %.critedge, label %43

43:                                               ; preds = %37
  %44 = call i64 @strlen(ptr noundef nonnull dereferenceable(1) %38) #8
  %45 = getelementptr inbounds nuw i8, ptr %0, i64 296
  store i64 %44, ptr %45, align 8, !tbaa !45
  call void @llvm.lifetime.end.p0(i64 8, ptr nonnull %3) #7
  br label %46

46:                                               ; preds = %43, %35
  %47 = call ptr @OSSL_PARAM_locate_const(ptr noundef %1, ptr noundef nonnull @.str.18) #7
  %.not42 = icmp eq ptr %47, null
  br i1 %.not42, label %58, label %48

48:                                               ; preds = %46
  %49 = getelementptr inbounds nuw i8, ptr %0, i64 304
  %50 = call i32 @OSSL_PARAM_get_utf8_ptr(ptr noundef nonnull %47, ptr noundef nonnull %49) #7
  %51 = icmp ne i32 %50, 0
  %52 = zext i1 %51 to i32
  %53 = call i32 @test_true(ptr noundef nonnull @.str.3, i32 noundef 237, ptr noundef nonnull @.str.28, i32 noundef %52) #7
  %.not43 = icmp eq i32 %53, 0
  br i1 %.not43, label %58, label %54

54:                                               ; preds = %48
  %55 = load ptr, ptr %49, align 8, !tbaa !34
  %56 = call i64 @strlen(ptr noundef nonnull dereferenceable(1) %55) #8
  %57 = getelementptr inbounds nuw i8, ptr %0, i64 312
  store i64 %56, ptr %57, align 8, !tbaa !46
  br label %58

.critedge:                                        ; preds = %37
  call void @llvm.lifetime.end.p0(i64 8, ptr nonnull %3) #7
  br label %58

58:                                               ; preds = %46, %54, %48, %.critedge, %28, %20, %12, %5
  %.026 = phi i32 [ 0, %5 ], [ 0, %12 ], [ 0, %20 ], [ 0, %28 ], [ 0, %.critedge ], [ 0, %48 ], [ 1, %54 ], [ 1, %46 ]
  ret i32 %.026
}